target datalayout = "e-m:e-p270:32:32-p271:32:32-p272:64:64-i64:64-i128:128-f80:128-n8:16:32:64-S128"
target triple = "x86_64-pc-linux-gnu"

%struct.HeapTupleData = type { i32, %struct.ItemPointerData, i32, ptr }
%struct.ItemPointerData = type { %struct.BlockIdData, i16 }
%struct.BlockIdData = type { i16, i16 }
%struct.HeapTupleHeaderData = type { %union.anon, %struct.ItemPointerData, i16, i16, i8, [0 x i8] }
%union.anon = type { %struct.HeapTupleFields }
%struct.HeapTupleFields = type { i32, i32, %union.anon.0 }
%union.anon.0 = type { i32 }
%struct.ScanKeyData = type { i32, i16, i16, i32, i32, %struct.FmgrInfo, i64 }
%struct.FmgrInfo = type { ptr, i32, i16, i8, i8, i8, ptr, ptr, ptr }
%struct.FormData_pg_publication_rel = type { i32, i32, i32 }

; Function Attrs: inlinehint nounwind uwtable
define internal ptr @GETSTRUCT(ptr noundef %0) #2 {
  %2 = alloca ptr, align 8
  store ptr %0, ptr %2, align 8
  %3 = load ptr, ptr %2, align 8
  %4 = getelementptr inbounds nuw %struct.HeapTupleData, ptr %3, i32 0, i32 3
  %5 = load ptr, ptr %4, align 8
  %6 = load ptr, ptr %2, align 8
  %7 = getelementptr inbounds nuw %struct.HeapTupleData, ptr %6, i32 0, i32 3
  %8 = load ptr, ptr %7, align 8
  %9 = getelementptr inbounds nuw %struct.HeapTupleHeaderData, ptr %8, i32 0, i32 4
  %10 = load i8, ptr %9, align 2
  %11 = zext i8 %10 to i32
  %12 = sext i32 %11 to i64
  %13 = getelementptr inbounds i8, ptr %5, i64 %12
  ret ptr %13
}

; Function Attrs: inlinehint nounwind uwtable
define internal i64 @ObjectIdGetDatum(i32 noundef %0) #2 {
  %2 = alloca i32, align 4
  store i32 %0, ptr %2, align 4
  %3 = load i32, ptr %2, align 4
  %4 = zext i32 %3 to i64
  ret i64 %4
}

; Function Attrs: nounwind uwtable
define dso_local ptr @GetPublicationRelations(i32 noundef %0, i32 noundef %1) #0 {
  %3 = alloca i32, align 4
  %4 = alloca i32, align 4
  %5 = alloca ptr, align 8
  %6 = alloca ptr, align 8
  %7 = alloca %struct.ScanKeyData, align 8
  %8 = alloca ptr, align 8
  %9 = alloca ptr, align 8
  %10 = alloca ptr, align 8
  store i32 %0, ptr %3, align 4
  store i32 %1, ptr %4, align 4
  call void @llvm.lifetime.start.p0(i64 8, ptr %5) #7
  call void @llvm.lifetime.start.p0(i64 8, ptr %6) #7
  call void @llvm.lifetime.start.p0(i64 72, ptr %7) #7
  call void @llvm.lifetime.start.p0(i64 8, ptr %8) #7
  call void @llvm.lifetime.start.p0(i64 8, ptr %9) #7
  %11 = call ptr @table_open(i32 noundef 6106, i32 noundef 1)
  store ptr %11, ptr %6, align 8
  %12 = load i32, ptr %3, align 4
  %13 = call i64 @ObjectIdGetDatum(i32 noundef %12)
  call void @ScanKeyInit(ptr noundef %7, i16 noundef signext 2, i16 noundef zeroext 3, i32 noundef 184, i64 noundef %13)
  %14 = load ptr, ptr %6, align 8
  %15 = call ptr @systable_beginscan(ptr noundef %14, i32 noundef 6116, i1 noundef zeroext true, ptr noundef null, i32 noundef 1, ptr noundef %7)
  store ptr %15, ptr %8, align 8
  store ptr null, ptr %5, align 8
  br label %16

16:                                               ; preds = %20, %2
  %17 = load ptr, ptr %8, align 8
  %18 = call ptr @systable_getnext(ptr noundef %17)
  store ptr %18, ptr %9, align 8
  %19 = icmp ne ptr %18, null
  br i1 %19, label %20, label %29

20:                                               ; preds = %16
  call void @llvm.lifetime.start.p0(i64 8, ptr %10) #7
  %21 = load ptr, ptr %9, align 8
  %22 = call ptr @GETSTRUCT(ptr noundef %21)
  store ptr %22, ptr %10, align 8
  %23 = load ptr, ptr %5, align 8
  %24 = load i32, ptr %4, align 4
  %25 = load ptr, ptr %10, align 8
  %26 = getelementptr inbounds nuw %struct.FormData_pg_publication_rel, ptr %25, i32 0, i32 2
  %27 = load i32, ptr %26, align 4
  %28 = call ptr @GetPubPartitionOptionRelations(ptr noundef %23, i32 noundef %24, i32 noundef %27)
  store ptr %28, ptr %5, align 8
  call void @llvm.lifetime.end.p0(i64 8, ptr %10) #7
  br label %16, !llvm.loop !17

29:                                               ; preds = %16
  %30 = load ptr, ptr %8, align 8
  call void @systable_endscan(ptr noundef %30)
  %31 = load ptr, ptr %6, align 8
  call void @table_close(ptr noundef %31, i32 noundef 1)
  %32 = load ptr, ptr %5, align 8
  call void @list_sort(ptr noundef %32, ptr noundef @list_oid_cmp)
  %33 = load ptr, ptr %5, align 8
  call void @list_deduplicate_oid(ptr noundef %33)
  %34 = load ptr, ptr %5, align 8
  call void @llvm.lifetime.end.p0(i64 8, ptr %9) #7
  call void @llvm.lifetime.end.p0(i64 8, ptr %8) #7
  call void @llvm.lifetime.end.p0(i64 72, ptr %7) #7
  call void @llvm.lifetime.end.p0(i64 8, ptr %6) #7
  call void @llvm.lifetime.end.p0(i64 8, ptr %5) #7
  ret ptr %34
}