; Function Attrs: nounwind uwtable
define dso_local ptr @GetPublicationRelations(i32 noundef %0, i32 noundef %1) local_unnamed_addr #0 {
  %3 = alloca %struct.ScanKeyData, align 8
  call void @llvm.lifetime.start.p0(i64 72, ptr nonnull %3) #6
  %4 = tail call ptr @table_open(i32 noundef 6106, i32 noundef 1) #6
  %5 = zext i32 %0 to i64
  call void @ScanKeyInit(ptr noundef nonnull %3, i16 noundef signext 2, i16 noundef zeroext 3, i32 noundef 184, i64 noundef %5) #6
  %6 = call ptr @systable_beginscan(ptr noundef %4, i32 noundef 6116, i1 noundef zeroext true, ptr noundef null, i32 noundef 1, ptr noundef nonnull %3) #6
  %7 = call ptr @systable_getnext(ptr noundef %6) #6
  %.not12 = icmp eq ptr %7, null
  br i1 %.not12, label %._crit_edge, label %.lr.ph

.lr.ph:                                           ; preds = %2, %.lr.ph
  %8 = phi ptr [ %17, %.lr.ph ], [ %7, %2 ]
  %.013 = phi ptr [ %16, %.lr.ph ], [ null, %2 ]
  %9 = getelementptr i8, ptr %8, i64 16
  %.val = load ptr, ptr %9, align 8
  %10 = getelementptr inbounds nuw i8, ptr %.val, i64 22
  %11 = load i8, ptr %10, align 2
  %12 = zext i8 %11 to i64
  %13 = getelementptr inbounds nuw i8, ptr %.val, i64 %12
  %14 = getelementptr inbounds nuw i8, ptr %13, i64 8
  %15 = load i32, ptr %14, align 4
  %16 = call ptr @GetPubPartitionOptionRelations(ptr noundef %.013, i32 noundef %1, i32 noundef %15)
  %17 = call ptr @systable_getnext(ptr noundef %6) #6
  %.not = icmp eq ptr %17, null
  br i1 %.not, label %._crit_edge, label %.lr.ph, !llvm.loop !14

._crit_edge:                                      ; preds = %.lr.ph, %2
  %.0.lcssa = phi ptr [ null, %2 ], [ %16, %.lr.ph ]
  call void @systable_endscan(ptr noundef %6) #6
  call void @table_close(ptr noundef %4, i32 noundef 1) #6
  call void @list_sort(ptr noundef %.0.lcssa, ptr noundef nonnull @list_oid_cmp) #6
  call void @list_deduplicate_oid(ptr noundef %.0.lcssa) #6
  call void @llvm.lifetime.end.p0(i64 72, ptr nonnull %3) #6
  ret ptr %.0.lcssa
}